target datalayout = "e-m:e-p270:32:32-p271:32:32-p272:64:64-i64:64-i128:128-f80:128-n8:16:32:64-S128"
target triple = "x86_64-pc-linux-gnu"

@PyExc_OSError = external global ptr, align 8
@PyExc_RuntimeError = external global ptr, align 8
@.str = private unnamed_addr constant [24 x i8] c"unknown error number %d\00", align 1

; Function Attrs: nounwind uwtable
define hidden ptr @_PyMp_SetError(ptr noundef %0, i32 noundef %1) #0 {
  %3 = alloca ptr, align 8
  %4 = alloca i32, align 4
  store ptr %0, ptr %3, align 8, !tbaa !3
  store i32 %1, ptr %4, align 4, !tbaa !8
  %5 = load i32, ptr %4, align 4, !tbaa !8
  switch i32 %5, label %16 [
    i32 -1, label %6
    i32 -1002, label %6
    i32 -1001, label %14
    i32 -1003, label %20
  ]

6:                                                ; preds = %2, %2
  %7 = load ptr, ptr %3, align 8, !tbaa !3
  %8 = icmp eq ptr %7, null
  br i1 %8, label %9, label %11

9:                                                ; preds = %6
  %10 = load ptr, ptr @PyExc_OSError, align 8, !tbaa !3
  store ptr %10, ptr %3, align 8, !tbaa !3
  br label %11

11:                                               ; preds = %9, %6
  %12 = load ptr, ptr %3, align 8, !tbaa !3
  %13 = call ptr @PyErr_SetFromErrno(ptr noundef %12)
  br label %20

14:                                               ; preds = %2
  %15 = call ptr @PyErr_NoMemory()
  br label %20

16:                                               ; preds = %2
  %17 = load ptr, ptr @PyExc_RuntimeError, align 8, !tbaa !3
  %18 = load i32, ptr %4, align 4, !tbaa !8
  %19 = call ptr (ptr, ptr, ...) @PyErr_Format(ptr noundef %17, ptr noundef @.str, i32 noundef %18)
  br label %20

20:                                               ; preds = %16, %2, %14, %11
  ret ptr null
}