; Function Attrs: nounwind uwtable
define hidden noalias noundef ptr @_PyMp_SetError(ptr noundef %0, i32 noundef %1) local_unnamed_addr #0 {
  switch i32 %1, label %9 [
    i32 -1, label %3
    i32 -1002, label %3
    i32 -1001, label %7
    i32 -1003, label %12
  ]

3:                                                ; preds = %2, %2
  %4 = icmp eq ptr %0, null
  %5 = load ptr, ptr @PyExc_OSError, align 8
  %spec.select = select i1 %4, ptr %5, ptr %0
  %6 = tail call ptr @PyErr_SetFromErrno(ptr noundef %spec.select) #3
  br label %12

7:                                                ; preds = %2
  %8 = tail call ptr @PyErr_NoMemory() #3
  br label %12

9:                                                ; preds = %2
  %10 = load ptr, ptr @PyExc_RuntimeError, align 8, !tbaa !3
  %11 = tail call ptr (ptr, ptr, ...) @PyErr_Format(ptr noundef %10, ptr noundef nonnull @.str, i32 noundef %1) #3
  br label %12

12:                                               ; preds = %9, %7, %3, %2
  ret ptr null
}